	.file	"8.c"
	.text
	.globl	_maxNum
	.def	_maxNum;	.scl	2;	.type	32;	.endef
_maxNum:
LFB10:
	.cfi_startproc
	pushl	%ebp
	.cfi_def_cfa_offset 8
	.cfi_offset 5, -8
	movl	%esp, %ebp
	.cfi_def_cfa_register 5
	subl	$16, %esp
	movl	8(%ebp), %eax
	movl	(%eax), %eax
	movl	%eax, -4(%ebp)
	movl	$0, -8(%ebp)
	jmp	L2
L4:
	movl	-8(%ebp), %eax
	leal	0(,%eax,4), %edx
	movl	8(%ebp), %eax
	addl	%edx, %eax
	movl	(%eax), %eax
	cmpl	-4(%ebp), %eax
	jle	L3
	movl	-8(%ebp), %eax
	leal	0(,%eax,4), %edx
	movl	8(%ebp), %eax
	addl	%edx, %eax
	movl	(%eax), %eax
	movl	%eax, -4(%ebp)
L3:
	addl	$1, -8(%ebp)
L2:
	movl	-8(%ebp), %eax
	cmpl	12(%ebp), %eax
	jl	L4
	movl	-4(%ebp), %eax
	leave
	.cfi_restore 5
	.cfi_def_cfa 4, 4
	ret
	.cfi_endproc
LFE10:
	.def	___main;	.scl	2;	.type	32;	.endef
	.section .rdata,"dr"
LC0:
	.ascii "Enter the size of the array\0"
LC1:
	.ascii "%d\0"
LC2:
	.ascii "%d element- \0"
LC3:
	.ascii "The maximum number is %d\0"
	.text
	.globl	_main
	.def	_main;	.scl	2;	.type	32;	.endef
_main:
LFB11:
	.cfi_startproc
	leal	4(%esp), %ecx
	.cfi_def_cfa 1, 0
	andl	$-16, %esp
	pushl	-4(%ecx)
	pushl	%ebp
	.cfi_escape 0x10,0x5,0x2,0x75,0
	movl	%esp, %ebp
	pushl	%ebx
	pushl	%ecx
	.cfi_escape 0xf,0x3,0x75,0x78,0x6
	.cfi_escape 0x10,0x3,0x2,0x75,0x7c
	subl	$48, %esp
	call	___main
	movl	%esp, %eax
	movl	%eax, %ebx
	movl	$LC0, (%esp)
	call	_puts
	leal	-28(%ebp), %eax
	movl	%eax, 4(%esp)
	movl	$LC1, (%esp)
	call	_scanf
	movl	-28(%ebp), %eax
	leal	-1(%eax), %edx
	movl	%edx, -16(%ebp)
	sall	$2, %eax
	leal	3(%eax), %edx
	movl	$16, %eax
	subl	$1, %eax
	addl	%edx, %eax
	movl	$16, %ecx
	movl	$0, %edx
	divl	%ecx
	imull	$16, %eax, %eax
	call	___chkstk_ms
	subl	%eax, %esp
	leal	8(%esp), %eax
	addl	$3, %eax
	shrl	$2, %eax
	sall	$2, %eax
	movl	%eax, -20(%ebp)
	movl	$0, -12(%ebp)
	jmp	L7
L8:
	movl	-12(%ebp), %eax
	addl	$1, %eax
	movl	%eax, 4(%esp)
	movl	$LC2, (%esp)
	call	_printf
	movl	-20(%ebp), %eax
	movl	-12(%ebp), %edx
	sall	$2, %edx
	addl	%edx, %eax
	movl	%eax, 4(%esp)
	movl	$LC1, (%esp)
	call	_scanf
	addl	$1, -12(%ebp)
L7:
	movl	-28(%ebp), %eax
	cmpl	%eax, -12(%ebp)
	jl	L8
	movl	-28(%ebp), %edx
	movl	-20(%ebp), %eax
	movl	%edx, 4(%esp)
	movl	%eax, (%esp)
	call	_maxNum
	movl	%eax, -24(%ebp)
	movl	-24(%ebp), %eax
	movl	%eax, 4(%esp)
	movl	$LC3, (%esp)
	call	_printf
	movl	$0, %eax
	movl	%ebx, %esp
	leal	-8(%ebp), %esp
	popl	%ecx
	.cfi_restore 1
	.cfi_def_cfa 1, 0
	popl	%ebx
	.cfi_restore 3
	popl	%ebp
	.cfi_restore 5
	leal	-4(%ecx), %esp
	.cfi_def_cfa 4, 4
	ret
	.cfi_endproc
LFE11:
	.ident	"GCC: (MinGW.org GCC-6.3.0-1) 6.3.0"
	.def	_puts;	.scl	2;	.type	32;	.endef
	.def	_scanf;	.scl	2;	.type	32;	.endef
	.def	_printf;	.scl	2;	.type	32;	.endef
